; ModuleID = '7/930.c'
source_filename = "7/930.c"
target datalayout = "e-m:e-p270:32:32-p271:32:32-p272:64:64-i64:64-f80:128-n8:16:32:64-S128"
target triple = "x86_64-pc-linux-gnu"

@.str = private unnamed_addr constant [3 x i8] c"%c\00", align 1
@.str.1 = private unnamed_addr constant [3 x i8] c"%s\00", align 1

; Function Attrs: noinline nounwind uwtable
define dso_local i32 @main() #0 {
  %1 = alloca i32, align 4
  %2 = alloca [260 x i8], align 16
  %3 = alloca [260 x i8], align 16
  %4 = alloca [260 x i8], align 16
  %5 = alloca i32, align 4
  %6 = alloca i32, align 4
  %7 = alloca i32, align 4
  %8 = alloca i32, align 4
  %9 = alloca i32, align 4
  %10 = alloca i32, align 4
  store i32 0, i32* %1, align 4
  store i32 0, i32* %7, align 4
  %11 = getelementptr inbounds [260 x i8], [260 x i8]* %2, i64 0, i64 0
  %12 = call i32 (i8*, ...) bitcast (i32 (...)* @gets to i32 (i8*, ...)*)(i8* %11)
  %13 = getelementptr inbounds [260 x i8], [260 x i8]* %3, i64 0, i64 0
  %14 = call i32 (i8*, ...) bitcast (i32 (...)* @gets to i32 (i8*, ...)*)(i8* %13)
  %15 = getelementptr inbounds [260 x i8], [260 x i8]* %4, i64 0, i64 0
  %16 = call i32 (i8*, ...) bitcast (i32 (...)* @gets to i32 (i8*, ...)*)(i8* %15)
  %17 = getelementptr inbounds [260 x i8], [260 x i8]* %3, i64 0, i64 0
  %18 = call i64 @strlen(i8* %17) #3
  %19 = trunc i64 %18 to i32
  store i32 %19, i32* %9, align 4
  %20 = getelementptr inbounds [260 x i8], [260 x i8]* %2, i64 0, i64 0
  %21 = call i64 @strlen(i8* %20) #3
  %22 = trunc i64 %21 to i32
  store i32 %22, i32* %10, align 4
  store i32 0, i32* %5, align 4
  br label %23

23:                                               ; preds = %75, %0
  %24 = load i32, i32* %5, align 4
  %25 = sext i32 %24 to i64
  %26 = getelementptr inbounds [260 x i8], [260 x i8]* %2, i64 0, i64 %25
  %27 = load i8, i8* %26, align 1
  %28 = sext i8 %27 to i32
  %29 = icmp ne i32 %28, 0
  br i1 %29, label %30, label %78

30:                                               ; preds = %23
  %31 = load i32, i32* %5, align 4
  %32 = sext i32 %31 to i64
  %33 = getelementptr inbounds [260 x i8], [260 x i8]* %2, i64 0, i64 %32
  %34 = load i8, i8* %33, align 1
  %35 = sext i8 %34 to i32
  %36 = getelementptr inbounds [260 x i8], [260 x i8]* %3, i64 0, i64 0
  %37 = load i8, i8* %36, align 16
  %38 = sext i8 %37 to i32
  %39 = icmp eq i32 %35, %38
  br i1 %39, label %40, label %69

40:                                               ; preds = %30
  store i32 0, i32* %6, align 4
  br label %41

41:                                               ; preds = %65, %40
  %42 = load i32, i32* %6, align 4
  %43 = sext i32 %42 to i64
  %44 = getelementptr inbounds [260 x i8], [260 x i8]* %3, i64 0, i64 %43
  %45 = load i8, i8* %44, align 1
  %46 = sext i8 %45 to i32
  %47 = icmp ne i32 %46, 0
  br i1 %47, label %48, label %68

48:                                               ; preds = %41
  %49 = load i32, i32* %6, align 4
  %50 = load i32, i32* %5, align 4
  %51 = add nsw i32 %49, %50
  %52 = sext i32 %51 to i64
  %53 = getelementptr inbounds [260 x i8], [260 x i8]* %2, i64 0, i64 %52
  %54 = load i8, i8* %53, align 1
  %55 = sext i8 %54 to i32
  %56 = load i32, i32* %6, align 4
  %57 = sext i32 %56 to i64
  %58 = getelementptr inbounds [260 x i8], [260 x i8]* %3, i64 0, i64 %57
  %59 = load i8, i8* %58, align 1
  %60 = sext i8 %59 to i32
  %61 = icmp eq i32 %55, %60
  br i1 %61, label %62, label %63

62:                                               ; preds = %48
  store i32 1, i32* %7, align 4
  br label %64

63:                                               ; preds = %48
  store i32 0, i32* %7, align 4
  br label %68

64:                                               ; preds = %62
  br label %65

65:                                               ; preds = %64
  %66 = load i32, i32* %6, align 4
  %67 = add nsw i32 %66, 1
  store i32 %67, i32* %6, align 4
  br label %41

68:                                               ; preds = %63, %41
  br label %69

69:                                               ; preds = %68, %30
  %70 = load i32, i32* %7, align 4
  %71 = icmp eq i32 %70, 1
  br i1 %71, label %72, label %74

72:                                               ; preds = %69
  %73 = load i32, i32* %5, align 4
  store i32 %73, i32* %8, align 4
  br label %78

74:                                               ; preds = %69
  br label %75

75:                                               ; preds = %74
  %76 = load i32, i32* %5, align 4
  %77 = add nsw i32 %76, 1
  store i32 %77, i32* %5, align 4
  br label %23

78:                                               ; preds = %72, %23
  %79 = load i32, i32* %7, align 4
  %80 = icmp eq i32 %79, 1
  br i1 %80, label %81, label %138

81:                                               ; preds = %78
  store i32 0, i32* %5, align 4
  br label %82

82:                                               ; preds = %93, %81
  %83 = load i32, i32* %5, align 4
  %84 = load i32, i32* %8, align 4
  %85 = icmp slt i32 %83, %84
  br i1 %85, label %86, label %96

86:                                               ; preds = %82
  %87 = load i32, i32* %5, align 4
  %88 = sext i32 %87 to i64
  %89 = getelementptr inbounds [260 x i8], [260 x i8]* %2, i64 0, i64 %88
  %90 = load i8, i8* %89, align 1
  %91 = sext i8 %90 to i32
  %92 = call i32 (i8*, ...) @printf(i8* getelementptr inbounds ([3 x i8], [3 x i8]* @.str, i64 0, i64 0), i32 %91)
  br label %93

93:                                               ; preds = %86
  %94 = load i32, i32* %5, align 4
  %95 = add nsw i32 %94, 1
  store i32 %95, i32* %5, align 4
  br label %82

96:                                               ; preds = %82
  store i32 0, i32* %5, align 4
  br label %97

97:                                               ; preds = %111, %96
  %98 = load i32, i32* %5, align 4
  %99 = sext i32 %98 to i64
  %100 = getelementptr inbounds [260 x i8], [260 x i8]* %4, i64 0, i64 %99
  %101 = load i8, i8* %100, align 1
  %102 = sext i8 %101 to i32
  %103 = icmp ne i32 %102, 0
  br i1 %103, label %104, label %114

104:                                              ; preds = %97
  %105 = load i32, i32* %5, align 4
  %106 = sext i32 %105 to i64
  %107 = getelementptr inbounds [260 x i8], [260 x i8]* %4, i64 0, i64 %106
  %108 = load i8, i8* %107, align 1
  %109 = sext i8 %108 to i32
  %110 = call i32 (i8*, ...) @printf(i8* getelementptr inbounds ([3 x i8], [3 x i8]* @.str, i64 0, i64 0), i32 %109)
  br label %111

111:                                              ; preds = %104
  %112 = load i32, i32* %5, align 4
  %113 = add nsw i32 %112, 1
  store i32 %113, i32* %5, align 4
  br label %97

114:                                              ; preds = %97
  store i32 0, i32* %5, align 4
  br label %115

115:                                              ; preds = %134, %114
  %116 = load i32, i32* %5, align 4
  %117 = load i32, i32* %10, align 4
  %118 = load i32, i32* %8, align 4
  %119 = sub nsw i32 %117, %118
  %120 = load i32, i32* %9, align 4
  %121 = sub nsw i32 %119, %120
  %122 = icmp slt i32 %116, %121
  br i1 %122, label %123, label %137

123:                                              ; preds = %115
  %124 = load i32, i32* %5, align 4
  %125 = load i32, i32* %9, align 4
  %126 = add nsw i32 %124, %125
  %127 = load i32, i32* %8, align 4
  %128 = add nsw i32 %126, %127
  %129 = sext i32 %128 to i64
  %130 = getelementptr inbounds [260 x i8], [260 x i8]* %2, i64 0, i64 %129
  %131 = load i8, i8* %130, align 1
  %132 = sext i8 %131 to i32
  %133 = call i32 (i8*, ...) @printf(i8* getelementptr inbounds ([3 x i8], [3 x i8]* @.str, i64 0, i64 0), i32 %132)
  br label %134

134:                                              ; preds = %123
  %135 = load i32, i32* %5, align 4
  %136 = add nsw i32 %135, 1
  store i32 %136, i32* %5, align 4
  br label %115

137:                                              ; preds = %115
  br label %141

138:                                              ; preds = %78
  %139 = getelementptr inbounds [260 x i8], [260 x i8]* %2, i64 0, i64 0
  %140 = call i32 (i8*, ...) @printf(i8* getelementptr inbounds ([3 x i8], [3 x i8]* @.str.1, i64 0, i64 0), i8* %139)
  br label %141

141:                                              ; preds = %138, %137
  ret i32 0
}

declare dso_local i32 @gets(...) #1

; Function Attrs: nounwind readonly
declare dso_local i64 @strlen(i8*) #2

declare dso_local i32 @printf(i8*, ...) #1


!llvm.module.flags = !{!0}
!llvm.ident = !{!1}

!0 = !{i32 1, !"wchar_size", i32 4}
!1 = !{!"clang version 10.0.0-4ubuntu1 "}
